; ModuleID = '60/1534.c'
source_filename = "60/1534.c"
target datalayout = "e-m:e-p270:32:32-p271:32:32-p272:64:64-i64:64-f80:128-n8:16:32:64-S128"
target triple = "x86_64-pc-linux-gnu"

@.str = private unnamed_addr constant [3 x i8] c"%d\00", align 1
@.str.1 = private unnamed_addr constant [7 x i8] c"%d %d\0A\00", align 1
@.str.2 = private unnamed_addr constant [7 x i8] c"empty\0A\00", align 1

; Function Attrs: noinline nounwind uwtable
define dso_local i32 @IsPrime(i32 %0) #0 {
  %2 = alloca i32, align 4
  %3 = alloca i32, align 4
  %4 = alloca i32, align 4
  %5 = alloca i32, align 4
  store i32 %0, i32* %3, align 4
  %6 = load i32, i32* %3, align 4
  %7 = sitofp i32 %6 to double
  %8 = call double @sqrt(double %7) #3
  %9 = fptosi double %8 to i32
  store i32 %9, i32* %4, align 4
  %10 = load i32, i32* %3, align 4
  %11 = icmp sgt i32 %10, 1
  %12 = zext i1 %11 to i32
  %13 = call i32 (i32, ...) bitcast (i32 (...)* @assert to i32 (i32, ...)*)(i32 %12)
  store i32 2, i32* %5, align 4
  br label %14

14:                                               ; preds = %25, %1
  %15 = load i32, i32* %5, align 4
  %16 = load i32, i32* %4, align 4
  %17 = icmp sle i32 %15, %16
  br i1 %17, label %18, label %28

18:                                               ; preds = %14
  %19 = load i32, i32* %3, align 4
  %20 = load i32, i32* %5, align 4
  %21 = srem i32 %19, %20
  %22 = icmp eq i32 %21, 0
  br i1 %22, label %23, label %24

23:                                               ; preds = %18
  store i32 0, i32* %2, align 4
  br label %29

24:                                               ; preds = %18
  br label %25

25:                                               ; preds = %24
  %26 = load i32, i32* %5, align 4
  %27 = add nsw i32 %26, 1
  store i32 %27, i32* %5, align 4
  br label %14

28:                                               ; preds = %14
  store i32 1, i32* %2, align 4
  br label %29

29:                                               ; preds = %28, %23
  %30 = load i32, i32* %2, align 4
  ret i32 %30
}

; Function Attrs: nounwind
declare dso_local double @sqrt(double) #1

declare dso_local i32 @assert(...) #2

; Function Attrs: noinline nounwind uwtable
define dso_local i32 @main() #0 {
  %1 = alloca i32, align 4
  %2 = alloca i32, align 4
  %3 = alloca i32, align 4
  %4 = alloca i32, align 4
  %5 = alloca i32, align 4
  %6 = alloca i32, align 4
  %7 = alloca i32, align 4
  %8 = alloca i32, align 4
  %9 = alloca i32, align 4
  store i32 0, i32* %1, align 4
  store i32 0, i32* %6, align 4
  store i32 0, i32* %9, align 4
  %10 = call i32 (i8*, ...) @__isoc99_scanf(i8* getelementptr inbounds ([3 x i8], [3 x i8]* @.str, i64 0, i64 0), i32* %2)
  store i32 3, i32* %3, align 4
  br label %11

11:                                               ; preds = %61, %0
  %12 = load i32, i32* %3, align 4
  %13 = load i32, i32* %2, align 4
  %14 = icmp sle i32 %12, %13
  br i1 %14, label %15, label %64

15:                                               ; preds = %11
  %16 = load i32, i32* %6, align 4
  %17 = icmp eq i32 %16, 1
  br i1 %17, label %18, label %30

18:                                               ; preds = %15
  %19 = load i32, i32* %3, align 4
  store i32 %19, i32* %5, align 4
  %20 = load i32, i32* %5, align 4
  %21 = call i32 @IsPrime(i32 %20)
  %22 = icmp ne i32 %21, 0
  br i1 %22, label %23, label %28

23:                                               ; preds = %18
  store i32 1, i32* %9, align 4
  %24 = load i32, i32* %3, align 4
  %25 = sub nsw i32 %24, 2
  %26 = load i32, i32* %5, align 4
  %27 = call i32 (i8*, ...) @printf(i8* getelementptr inbounds ([7 x i8], [7 x i8]* @.str.1, i64 0, i64 0), i32 %25, i32 %26)
  br label %29

28:                                               ; preds = %18
  store i32 0, i32* %6, align 4
  br label %29

29:                                               ; preds = %28, %23
  br label %60

30:                                               ; preds = %15
  %31 = load i32, i32* %3, align 4
  store i32 %31, i32* %4, align 4
  %32 = load i32, i32* %3, align 4
  %33 = add nsw i32 %32, 2
  store i32 %33, i32* %5, align 4
  %34 = load i32, i32* %5, align 4
  %35 = load i32, i32* %2, align 4
  %36 = icmp sgt i32 %34, %35
  br i1 %36, label %37, label %38

37:                                               ; preds = %30
  br label %64

38:                                               ; preds = %30
  %39 = load i32, i32* %3, align 4
  %40 = add nsw i32 %39, 2
  store i32 %40, i32* %3, align 4
  %41 = load i32, i32* %4, align 4
  %42 = call i32 @IsPrime(i32 %41)
  store i32 %42, i32* %7, align 4
  %43 = load i32, i32* %5, align 4
  %44 = call i32 @IsPrime(i32 %43)
  store i32 %44, i32* %8, align 4
  %45 = load i32, i32* %7, align 4
  %46 = icmp ne i32 %45, 0
  br i1 %46, label %47, label %54

47:                                               ; preds = %38
  %48 = load i32, i32* %8, align 4
  %49 = icmp ne i32 %48, 0
  br i1 %49, label %50, label %54

50:                                               ; preds = %47
  store i32 1, i32* %9, align 4
  %51 = load i32, i32* %4, align 4
  %52 = load i32, i32* %5, align 4
  %53 = call i32 (i8*, ...) @printf(i8* getelementptr inbounds ([7 x i8], [7 x i8]* @.str.1, i64 0, i64 0), i32 %51, i32 %52)
  store i32 1, i32* %6, align 4
  br label %59

54:                                               ; preds = %47, %38
  %55 = load i32, i32* %8, align 4
  %56 = icmp ne i32 %55, 0
  br i1 %56, label %57, label %58

57:                                               ; preds = %54
  store i32 1, i32* %6, align 4
  br label %58

58:                                               ; preds = %57, %54
  br label %59

59:                                               ; preds = %58, %50
  br label %60

60:                                               ; preds = %59, %29
  br label %61

61:                                               ; preds = %60
  %62 = load i32, i32* %3, align 4
  %63 = add nsw i32 %62, 2
  store i32 %63, i32* %3, align 4
  br label %11

64:                                               ; preds = %37, %11
  %65 = load i32, i32* %9, align 4
  %66 = icmp ne i32 %65, 0
  br i1 %66, label %69, label %67

67:                                               ; preds = %64
  %68 = call i32 (i8*, ...) @printf(i8* getelementptr inbounds ([7 x i8], [7 x i8]* @.str.2, i64 0, i64 0))
  br label %69

69:                                               ; preds = %67, %64
  ret i32 0
}

declare dso_local i32 @__isoc99_scanf(i8*, ...) #2

declare dso_local i32 @printf(i8*, ...) #2


!llvm.module.flags = !{!0}
!llvm.ident = !{!1}

!0 = !{i32 1, !"wchar_size", i32 4}
!1 = !{!"clang version 10.0.0-4ubuntu1 "}
